; ModuleID = '49/955.c'
source_filename = "49/955.c"
target datalayout = "e-m:e-p270:32:32-p271:32:32-p272:64:64-i64:64-f80:128-n8:16:32:64-S128"
target triple = "x86_64-pc-linux-gnu"

@.str = private unnamed_addr constant [3 x i8] c"%s\00", align 1
@.str.1 = private unnamed_addr constant [4 x i8] c"%s\0A\00", align 1

; Function Attrs: noinline nounwind uwtable
define dso_local void @main() #0 {
  %1 = alloca [500 x i8], align 16
  %2 = alloca i32, align 4
  %3 = alloca i32, align 4
  %4 = alloca i32, align 4
  %5 = alloca i32, align 4
  %6 = alloca [500 x i8], align 16
  %7 = alloca [500 x i8], align 16
  %8 = call i32 (i8*, ...) @__isoc99_scanf(i8* getelementptr inbounds ([3 x i8], [3 x i8]* @.str, i64 0, i64 0), [500 x i8]* %1)
  store i32 2, i32* %2, align 4
  br label %9

9:                                                ; preds = %81, %0
  %10 = load i32, i32* %2, align 4
  %11 = sext i32 %10 to i64
  %12 = getelementptr inbounds [500 x i8], [500 x i8]* %1, i64 0, i64 0
  %13 = call i64 @strlen(i8* %12) #4
  %14 = icmp ule i64 %11, %13
  br i1 %14, label %15, label %84

15:                                               ; preds = %9
  store i32 0, i32* %3, align 4
  br label %16

16:                                               ; preds = %77, %15
  %17 = load i32, i32* %3, align 4
  %18 = load i32, i32* %2, align 4
  %19 = add nsw i32 %17, %18
  %20 = sub nsw i32 %19, 1
  %21 = sext i32 %20 to i64
  %22 = getelementptr inbounds [500 x i8], [500 x i8]* %1, i64 0, i64 0
  %23 = call i64 @strlen(i8* %22) #4
  %24 = icmp ult i64 %21, %23
  br i1 %24, label %25, label %80

25:                                               ; preds = %16
  %26 = bitcast [500 x i8]* %6 to i8*
  call void @llvm.memset.p0i8.i64(i8* align 16 %26, i8 0, i64 500, i1 false)
  %27 = bitcast [500 x i8]* %7 to i8*
  call void @llvm.memset.p0i8.i64(i8* align 16 %27, i8 0, i64 500, i1 false)
  %28 = load i32, i32* %3, align 4
  store i32 %28, i32* %4, align 4
  br label %29

29:                                               ; preds = %46, %25
  %30 = load i32, i32* %4, align 4
  %31 = load i32, i32* %3, align 4
  %32 = load i32, i32* %2, align 4
  %33 = add nsw i32 %31, %32
  %34 = sub nsw i32 %33, 1
  %35 = icmp sle i32 %30, %34
  br i1 %35, label %36, label %49

36:                                               ; preds = %29
  %37 = load i32, i32* %4, align 4
  %38 = sext i32 %37 to i64
  %39 = getelementptr inbounds [500 x i8], [500 x i8]* %1, i64 0, i64 %38
  %40 = load i8, i8* %39, align 1
  %41 = load i32, i32* %4, align 4
  %42 = load i32, i32* %3, align 4
  %43 = sub nsw i32 %41, %42
  %44 = sext i32 %43 to i64
  %45 = getelementptr inbounds [500 x i8], [500 x i8]* %6, i64 0, i64 %44
  store i8 %40, i8* %45, align 1
  br label %46

46:                                               ; preds = %36
  %47 = load i32, i32* %4, align 4
  %48 = add nsw i32 %47, 1
  store i32 %48, i32* %4, align 4
  br label %29

49:                                               ; preds = %29
  store i32 0, i32* %5, align 4
  br label %50

50:                                               ; preds = %65, %49
  %51 = load i32, i32* %5, align 4
  %52 = load i32, i32* %2, align 4
  %53 = icmp slt i32 %51, %52
  br i1 %53, label %54, label %68

54:                                               ; preds = %50
  %55 = load i32, i32* %2, align 4
  %56 = load i32, i32* %5, align 4
  %57 = sub nsw i32 %55, %56
  %58 = sub nsw i32 %57, 1
  %59 = sext i32 %58 to i64
  %60 = getelementptr inbounds [500 x i8], [500 x i8]* %6, i64 0, i64 %59
  %61 = load i8, i8* %60, align 1
  %62 = load i32, i32* %5, align 4
  %63 = sext i32 %62 to i64
  %64 = getelementptr inbounds [500 x i8], [500 x i8]* %7, i64 0, i64 %63
  store i8 %61, i8* %64, align 1
  br label %65

65:                                               ; preds = %54
  %66 = load i32, i32* %5, align 4
  %67 = add nsw i32 %66, 1
  store i32 %67, i32* %5, align 4
  br label %50

68:                                               ; preds = %50
  %69 = getelementptr inbounds [500 x i8], [500 x i8]* %6, i64 0, i64 0
  %70 = getelementptr inbounds [500 x i8], [500 x i8]* %7, i64 0, i64 0
  %71 = call i32 @strcmp(i8* %69, i8* %70) #4
  %72 = icmp eq i32 %71, 0
  br i1 %72, label %73, label %76

73:                                               ; preds = %68
  %74 = getelementptr inbounds [500 x i8], [500 x i8]* %6, i64 0, i64 0
  %75 = call i32 (i8*, ...) @printf(i8* getelementptr inbounds ([4 x i8], [4 x i8]* @.str.1, i64 0, i64 0), i8* %74)
  br label %76

76:                                               ; preds = %73, %68
  br label %77

77:                                               ; preds = %76
  %78 = load i32, i32* %3, align 4
  %79 = add nsw i32 %78, 1
  store i32 %79, i32* %3, align 4
  br label %16

80:                                               ; preds = %16
  br label %81

81:                                               ; preds = %80
  %82 = load i32, i32* %2, align 4
  %83 = add nsw i32 %82, 1
  store i32 %83, i32* %2, align 4
  br label %9

84:                                               ; preds = %9
  ret void
}

declare dso_local i32 @__isoc99_scanf(i8*, ...) #1

; Function Attrs: nounwind readonly
declare dso_local i64 @strlen(i8*) #2

; Function Attrs: argmemonly nounwind willreturn
declare void @llvm.memset.p0i8.i64(i8* nocapture writeonly, i8, i64, i1 immarg) #3

; Function Attrs: nounwind readonly
declare dso_local i32 @strcmp(i8*, i8*) #2

declare dso_local i32 @printf(i8*, ...) #1


!llvm.module.flags = !{!0}
!llvm.ident = !{!1}

!0 = !{i32 1, !"wchar_size", i32 4}
!1 = !{!"clang version 10.0.0-4ubuntu1 "}
